target datalayout = "e-m:e-p270:32:32-p271:32:32-p272:64:64-i64:64-i128:128-f80:128-n8:16:32:64-S128"
target triple = "x86_64-pc-linux-gnu"

%struct.expert_field = type { i32, i32 }

@hf_nan_attr_availability_entry_entries_band = internal global i32 0, align 4
@hf_nan_attr_availability_entry_entries_channel_op_class = internal global i32 0, align 4
@hf_nan_attr_availability_entry_entries_channel_bitmap = internal global i32 0, align 4
@hf_nan_attr_availability_entry_entries_primary_channel_bitmap = internal global i32 0, align 4
@hf_nan_attr_availability_entry_entries_aux_channel_bitmap = internal global i32 0, align 4
@hf_nan_attr_unaligned_sch_ctrl = internal global i32 0, align 4
@hf_nan_attr_unaligned_sch_starting_time = internal global i32 0, align 4
@hf_nan_attr_unaligned_sch_duration = internal global i32 0, align 4
@hf_nan_attr_unaligned_sch_period = internal global i32 0, align 4
@hf_nan_attr_unaligned_sch_count_down = internal global i32 0, align 4
@hf_nan_attr_unaligned_sch_ulw_overwrite = internal global i32 0, align 4
@hf_nan_attr_unaligned_sch_ulw_ctrl = internal global i32 0, align 4
@ett_availability_entry_entries_channel = internal global i32 0, align 4
@ett_unaligned_sch_ctrl = internal global i32 0, align 4
@ett_unaligned_sch_ulw_overwrite = internal global i32 0, align 4
@ett_unaligned_sch_ulw_ctrl = internal global i32 0, align 4
@ei_nan_elem_len_invalid = internal global %struct.expert_field zeroinitializer, align 4
@dissect_attr_unaligned_schedule.control_fields = internal constant [3 x ptr] [ptr @hf_nan_attr_unaligned_sch_ctrl_schedule_id, ptr @hf_nan_attr_unaligned_sch_ctrl_seq_id, ptr null], align 16
@dissect_attr_unaligned_schedule.ulw_overwrite_fields = internal constant [3 x ptr] [ptr @hf_nan_attr_unaligned_sch_ulw_overwrite_all, ptr @hf_nan_attr_unaligned_sch_ulw_overwrite_map_id, ptr null], align 16
@dissect_attr_unaligned_schedule.ulw_control_fields = internal constant [4 x ptr] [ptr @hf_nan_attr_unaligned_sch_ulw_ctrl_type, ptr @hf_nan_attr_unaligned_sch_ulw_ctrl_channel_av, ptr @hf_nan_attr_unaligned_sch_ulw_ctrl_rxnss, ptr null], align 16
@.str.726 = private unnamed_addr constant [14 x i8] c"Channel Entry\00", align 1

; Function Attrs: null_pointer_is_valid sspstrong uwtable
define internal void @dissect_attr_unaligned_schedule(ptr noundef %0, ptr noundef %1, i32 noundef %2, i16 noundef zeroext %3, ptr noundef %4) #0 {
  %6 = alloca ptr, align 8
  %7 = alloca ptr, align 8
  %8 = alloca i32, align 4
  %9 = alloca i16, align 2
  %10 = alloca ptr, align 8
  %11 = alloca i32, align 4
  %12 = alloca i32, align 4
  %13 = alloca i8, align 1
  %14 = alloca ptr, align 8
  %15 = alloca ptr, align 8
  store ptr %0, ptr %6, align 8
  store ptr %1, ptr %7, align 8
  store i32 %2, ptr %8, align 4
  store i16 %3, ptr %9, align 2
  store ptr %4, ptr %10, align 8
  %16 = load i16, ptr %9, align 2
  %17 = zext i16 %16 to i32
  %18 = icmp slt i32 %17, 16
  br i1 %18, label %19, label %23

19:                                               ; preds = %5
  %20 = load ptr, ptr %10, align 8
  %21 = load ptr, ptr %6, align 8
  %22 = call ptr @expert_add_info(ptr noundef %20, ptr noundef %21, ptr noundef @ei_nan_elem_len_invalid)
  br label %159

23:                                               ; preds = %5
  call void @llvm.lifetime.start.p0(i64 4, ptr %11) #5
  %24 = load i32, ptr %8, align 4
  %25 = add i32 %24, 3
  store i32 %25, ptr %11, align 4
  call void @llvm.lifetime.start.p0(i64 4, ptr %12) #5
  store i32 0, ptr %12, align 4
  %26 = load ptr, ptr %6, align 8
  %27 = load ptr, ptr %7, align 8
  %28 = load i32, ptr %11, align 4
  %29 = load i32, ptr @hf_nan_attr_unaligned_sch_ctrl, align 4
  %30 = load i32, ptr @ett_unaligned_sch_ctrl, align 4
  %31 = call ptr @proto_tree_add_bitmask(ptr noundef %26, ptr noundef %27, i32 noundef %28, i32 noundef %29, i32 noundef %30, ptr noundef @dissect_attr_unaligned_schedule.control_fields, i32 noundef -2147483648)
  %32 = load i32, ptr %11, align 4
  %33 = add i32 %32, 2
  store i32 %33, ptr %11, align 4
  %34 = load ptr, ptr %6, align 8
  %35 = load i32, ptr @hf_nan_attr_unaligned_sch_starting_time, align 4
  %36 = load ptr, ptr %7, align 8
  %37 = load i32, ptr %11, align 4
  %38 = call ptr @proto_tree_add_item(ptr noundef %34, i32 noundef %35, ptr noundef %36, i32 noundef %37, i32 noundef 4, i32 noundef -2147483648)
  %39 = load i32, ptr %11, align 4
  %40 = add i32 %39, 4
  store i32 %40, ptr %11, align 4
  %41 = load ptr, ptr %6, align 8
  %42 = load i32, ptr @hf_nan_attr_unaligned_sch_duration, align 4
  %43 = load ptr, ptr %7, align 8
  %44 = load i32, ptr %11, align 4
  %45 = call ptr @proto_tree_add_item(ptr noundef %41, i32 noundef %42, ptr noundef %43, i32 noundef %44, i32 noundef 4, i32 noundef -2147483648)
  %46 = load i32, ptr %11, align 4
  %47 = add i32 %46, 4
  store i32 %47, ptr %11, align 4
  %48 = load ptr, ptr %6, align 8
  %49 = load i32, ptr @hf_nan_attr_unaligned_sch_period, align 4
  %50 = load ptr, ptr %7, align 8
  %51 = load i32, ptr %11, align 4
  %52 = call ptr @proto_tree_add_item(ptr noundef %48, i32 noundef %49, ptr noundef %50, i32 noundef %51, i32 noundef 4, i32 noundef -2147483648)
  %53 = load i32, ptr %11, align 4
  %54 = add i32 %53, 4
  store i32 %54, ptr %11, align 4
  %55 = load ptr, ptr %6, align 8
  %56 = load i32, ptr @hf_nan_attr_unaligned_sch_count_down, align 4
  %57 = load ptr, ptr %7, align 8
  %58 = load i32, ptr %11, align 4
  %59 = call ptr @proto_tree_add_item(ptr noundef %55, i32 noundef %56, ptr noundef %57, i32 noundef %58, i32 noundef 1, i32 noundef 0)
  %60 = load i32, ptr %11, align 4
  %61 = add i32 %60, 1
  store i32 %61, ptr %11, align 4
  %62 = load ptr, ptr %6, align 8
  %63 = load ptr, ptr %7, align 8
  %64 = load i32, ptr %11, align 4
  %65 = load i32, ptr @hf_nan_attr_unaligned_sch_ulw_overwrite, align 4
  %66 = load i32, ptr @ett_unaligned_sch_ulw_overwrite, align 4
  %67 = call ptr @proto_tree_add_bitmask(ptr noundef %62, ptr noundef %63, i32 noundef %64, i32 noundef %65, i32 noundef %66, ptr noundef @dissect_attr_unaligned_schedule.ulw_overwrite_fields, i32 noundef -2147483648)
  %68 = load i32, ptr %11, align 4
  %69 = add i32 %68, 1
  store i32 %69, ptr %11, align 4
  %70 = load i32, ptr %12, align 4
  %71 = add i32 %70, 16
  store i32 %71, ptr %12, align 4
  %72 = load i32, ptr %12, align 4
  %73 = load i16, ptr %9, align 2
  %74 = zext i16 %73 to i32
  %75 = icmp ult i32 %72, %74
  br i1 %75, label %76, label %158

76:                                               ; preds = %23
  %77 = load ptr, ptr %6, align 8
  %78 = load ptr, ptr %7, align 8
  %79 = load i32, ptr %11, align 4
  %80 = load i32, ptr @hf_nan_attr_unaligned_sch_ulw_ctrl, align 4
  %81 = load i32, ptr @ett_unaligned_sch_ulw_ctrl, align 4
  %82 = call ptr @proto_tree_add_bitmask(ptr noundef %77, ptr noundef %78, i32 noundef %79, i32 noundef %80, i32 noundef %81, ptr noundef @dissect_attr_unaligned_schedule.ulw_control_fields, i32 noundef -2147483648)
  call void @llvm.lifetime.start.p0(i64 1, ptr %13) #5
  %83 = load ptr, ptr %7, align 8
  %84 = load i32, ptr %11, align 4
  %85 = mul i32 %84, 8
  %86 = add i32 %85, 6
  %87 = call zeroext i8 @tvb_get_bits8(ptr noundef %83, i32 noundef %86, i32 noundef 2)
  store i8 %87, ptr %13, align 1
  %88 = load i32, ptr %11, align 4
  %89 = add i32 %88, 1
  store i32 %89, ptr %11, align 4
  %90 = load i8, ptr %13, align 1
  %91 = zext i8 %90 to i32
  switch i32 %91, label %157 [
    i32 0, label %92
    i32 1, label %100
    i32 2, label %125
  ]

92:                                               ; preds = %76
  %93 = load ptr, ptr %6, align 8
  %94 = load i32, ptr @hf_nan_attr_availability_entry_entries_band, align 4
  %95 = load ptr, ptr %7, align 8
  %96 = load i32, ptr %11, align 4
  %97 = call ptr @proto_tree_add_item(ptr noundef %93, i32 noundef %94, ptr noundef %95, i32 noundef %96, i32 noundef 1, i32 noundef -2147483648)
  %98 = load i32, ptr %11, align 4
  %99 = add i32 %98, 1
  store i32 %99, ptr %11, align 4
  br label %157

100:                                              ; preds = %76
  call void @llvm.lifetime.start.p0(i64 8, ptr %14) #5
  %101 = load ptr, ptr %6, align 8
  %102 = load ptr, ptr %7, align 8
  %103 = load i32, ptr %11, align 4
  %104 = load i32, ptr @ett_availability_entry_entries_channel, align 4
  %105 = call ptr @proto_tree_add_subtree(ptr noundef %101, ptr noundef %102, i32 noundef %103, i32 noundef 4, i32 noundef %104, ptr noundef null, ptr noundef @.str.726)
  store ptr %105, ptr %14, align 8
  %106 = load ptr, ptr %14, align 8
  %107 = load i32, ptr @hf_nan_attr_availability_entry_entries_channel_op_class, align 4
  %108 = load ptr, ptr %7, align 8
  %109 = load i32, ptr %11, align 4
  %110 = call ptr @proto_tree_add_item(ptr noundef %106, i32 noundef %107, ptr noundef %108, i32 noundef %109, i32 noundef 1, i32 noundef -2147483648)
  %111 = load i32, ptr %11, align 4
  %112 = add i32 %111, 1
  store i32 %112, ptr %11, align 4
  %113 = load ptr, ptr %14, align 8
  %114 = load i32, ptr @hf_nan_attr_availability_entry_entries_channel_bitmap, align 4
  %115 = load ptr, ptr %7, align 8
  %116 = load i32, ptr %11, align 4
  %117 = call ptr @proto_tree_add_item(ptr noundef %113, i32 noundef %114, ptr noundef %115, i32 noundef %116, i32 noundef 2, i32 noundef -2147483648)
  %118 = load i32, ptr %11, align 4
  %119 = add i32 %118, 2
  store i32 %119, ptr %11, align 4
  %120 = load ptr, ptr %14, align 8
  %121 = load i32, ptr @hf_nan_attr_availability_entry_entries_primary_channel_bitmap, align 4
  %122 = load ptr, ptr %7, align 8
  %123 = load i32, ptr %11, align 4
  %124 = call ptr @proto_tree_add_item(ptr noundef %120, i32 noundef %121, ptr noundef %122, i32 noundef %123, i32 noundef 1, i32 noundef -2147483648)
  call void @llvm.lifetime.end.p0(i64 8, ptr %14) #5
  br label %157

125:                                              ; preds = %76
  call void @llvm.lifetime.start.p0(i64 8, ptr %15) #5
  %126 = load ptr, ptr %6, align 8
  %127 = load ptr, ptr %7, align 8
  %128 = load i32, ptr %11, align 4
  %129 = load i32, ptr @ett_availability_entry_entries_channel, align 4
  %130 = call ptr @proto_tree_add_subtree(ptr noundef %126, ptr noundef %127, i32 noundef %128, i32 noundef 4, i32 noundef %129, ptr noundef null, ptr noundef @.str.726)
  store ptr %130, ptr %15, align 8
  %131 = load ptr, ptr %15, align 8
  %132 = load i32, ptr @hf_nan_attr_availability_entry_entries_channel_op_class, align 4
  %133 = load ptr, ptr %7, align 8
  %134 = load i32, ptr %11, align 4
  %135 = call ptr @proto_tree_add_item(ptr noundef %131, i32 noundef %132, ptr noundef %133, i32 noundef %134, i32 noundef 1, i32 noundef -2147483648)
  %136 = load i32, ptr %11, align 4
  %137 = add i32 %136, 1
  store i32 %137, ptr %11, align 4
  %138 = load ptr, ptr %15, align 8
  %139 = load i32, ptr @hf_nan_attr_availability_entry_entries_channel_bitmap, align 4
  %140 = load ptr, ptr %7, align 8
  %141 = load i32, ptr %11, align 4
  %142 = call ptr @proto_tree_add_item(ptr noundef %138, i32 noundef %139, ptr noundef %140, i32 noundef %141, i32 noundef 2, i32 noundef -2147483648)
  %143 = load i32, ptr %11, align 4
  %144 = add i32 %143, 2
  store i32 %144, ptr %11, align 4
  %145 = load ptr, ptr %15, align 8
  %146 = load i32, ptr @hf_nan_attr_availability_entry_entries_primary_channel_bitmap, align 4
  %147 = load ptr, ptr %7, align 8
  %148 = load i32, ptr %11, align 4
  %149 = call ptr @proto_tree_add_item(ptr noundef %145, i32 noundef %146, ptr noundef %147, i32 noundef %148, i32 noundef 1, i32 noundef -2147483648)
  %150 = load i32, ptr %11, align 4
  %151 = add i32 %150, 1
  store i32 %151, ptr %11, align 4
  %152 = load ptr, ptr %15, align 8
  %153 = load i32, ptr @hf_nan_attr_availability_entry_entries_aux_channel_bitmap, align 4
  %154 = load ptr, ptr %7, align 8
  %155 = load i32, ptr %11, align 4
  %156 = call ptr @proto_tree_add_item(ptr noundef %152, i32 noundef %153, ptr noundef %154, i32 noundef %155, i32 noundef 2, i32 noundef -2147483648)
  call void @llvm.lifetime.end.p0(i64 8, ptr %15) #5
  br label %157

157:                                              ; preds = %76, %125, %100, %92
  call void @llvm.lifetime.end.p0(i64 1, ptr %13) #5
  br label %158

158:                                              ; preds = %157, %23
  call void @llvm.lifetime.end.p0(i64 4, ptr %12) #5
  call void @llvm.lifetime.end.p0(i64 4, ptr %11) #5
  br label %159

159:                                              ; preds = %158, %19
  ret void
}