; Function Attrs: null_pointer_is_valid sspstrong uwtable
define internal fastcc void @dissect_attr_unaligned_schedule(ptr noundef %0, ptr noundef %1, i32 noundef %2, i16 noundef zeroext %3, ptr noundef %4) unnamed_addr #0 {
  %6 = icmp ult i16 %3, 16
  br i1 %6, label %7, label %9

7:                                                ; preds = %5
  %8 = tail call ptr @expert_add_info(ptr noundef %4, ptr noundef %0, ptr noundef nonnull @ei_nan_elem_len_invalid)
  br label %67

9:                                                ; preds = %5
  %10 = add i32 %2, 3
  %11 = load i32, ptr @hf_nan_attr_unaligned_sch_ctrl, align 4
  %12 = load i32, ptr @ett_unaligned_sch_ctrl, align 4
  %13 = tail call ptr @proto_tree_add_bitmask(ptr noundef %0, ptr noundef %1, i32 noundef %10, i32 noundef %11, i32 noundef %12, ptr noundef nonnull @dissect_attr_unaligned_schedule.control_fields, i32 noundef -2147483648)
  %14 = add i32 %2, 5
  %15 = load i32, ptr @hf_nan_attr_unaligned_sch_starting_time, align 4
  %16 = tail call ptr @proto_tree_add_item(ptr noundef %0, i32 noundef %15, ptr noundef %1, i32 noundef %14, i32 noundef 4, i32 noundef -2147483648)
  %17 = add i32 %2, 9
  %18 = load i32, ptr @hf_nan_attr_unaligned_sch_duration, align 4
  %19 = tail call ptr @proto_tree_add_item(ptr noundef %0, i32 noundef %18, ptr noundef %1, i32 noundef %17, i32 noundef 4, i32 noundef -2147483648)
  %20 = add i32 %2, 13
  %21 = load i32, ptr @hf_nan_attr_unaligned_sch_period, align 4
  %22 = tail call ptr @proto_tree_add_item(ptr noundef %0, i32 noundef %21, ptr noundef %1, i32 noundef %20, i32 noundef 4, i32 noundef -2147483648)
  %23 = add i32 %2, 17
  %24 = load i32, ptr @hf_nan_attr_unaligned_sch_count_down, align 4
  %25 = tail call ptr @proto_tree_add_item(ptr noundef %0, i32 noundef %24, ptr noundef %1, i32 noundef %23, i32 noundef 1, i32 noundef 0)
  %26 = add i32 %2, 18
  %27 = load i32, ptr @hf_nan_attr_unaligned_sch_ulw_overwrite, align 4
  %28 = load i32, ptr @ett_unaligned_sch_ulw_overwrite, align 4
  %29 = tail call ptr @proto_tree_add_bitmask(ptr noundef %0, ptr noundef %1, i32 noundef %26, i32 noundef %27, i32 noundef %28, ptr noundef nonnull @dissect_attr_unaligned_schedule.ulw_overwrite_fields, i32 noundef -2147483648)
  %.not = icmp eq i16 %3, 16
  br i1 %.not, label %67, label %30

30:                                               ; preds = %9
  %31 = add i32 %2, 19
  %32 = load i32, ptr @hf_nan_attr_unaligned_sch_ulw_ctrl, align 4
  %33 = load i32, ptr @ett_unaligned_sch_ulw_ctrl, align 4
  %34 = tail call ptr @proto_tree_add_bitmask(ptr noundef %0, ptr noundef %1, i32 noundef %31, i32 noundef %32, i32 noundef %33, ptr noundef nonnull @dissect_attr_unaligned_schedule.ulw_control_fields, i32 noundef -2147483648)
  %35 = shl i32 %31, 3
  %36 = or disjoint i32 %35, 6
  %37 = tail call zeroext i8 @tvb_get_bits8(ptr noundef %1, i32 noundef %36, i32 noundef 2)
  %38 = add i32 %2, 20
  switch i8 %37, label %67 [
    i8 0, label %39
    i8 1, label %42
    i8 2, label %53
  ]

39:                                               ; preds = %30
  %40 = load i32, ptr @hf_nan_attr_availability_entry_entries_band, align 4
  %41 = tail call ptr @proto_tree_add_item(ptr noundef %0, i32 noundef %40, ptr noundef %1, i32 noundef %38, i32 noundef 1, i32 noundef -2147483648)
  br label %67

42:                                               ; preds = %30
  %43 = load i32, ptr @ett_availability_entry_entries_channel, align 4
  %44 = tail call ptr @proto_tree_add_subtree(ptr noundef %0, ptr noundef %1, i32 noundef %38, i32 noundef 4, i32 noundef %43, ptr noundef null, ptr noundef nonnull @.str.726)
  %45 = load i32, ptr @hf_nan_attr_availability_entry_entries_channel_op_class, align 4
  %46 = tail call ptr @proto_tree_add_item(ptr noundef %44, i32 noundef %45, ptr noundef %1, i32 noundef %38, i32 noundef 1, i32 noundef -2147483648)
  %47 = add i32 %2, 21
  %48 = load i32, ptr @hf_nan_attr_availability_entry_entries_channel_bitmap, align 4
  %49 = tail call ptr @proto_tree_add_item(ptr noundef %44, i32 noundef %48, ptr noundef %1, i32 noundef %47, i32 noundef 2, i32 noundef -2147483648)
  %50 = add i32 %2, 23
  %51 = load i32, ptr @hf_nan_attr_availability_entry_entries_primary_channel_bitmap, align 4
  %52 = tail call ptr @proto_tree_add_item(ptr noundef %44, i32 noundef %51, ptr noundef %1, i32 noundef %50, i32 noundef 1, i32 noundef -2147483648)
  br label %67

53:                                               ; preds = %30
  %54 = load i32, ptr @ett_availability_entry_entries_channel, align 4
  %55 = tail call ptr @proto_tree_add_subtree(ptr noundef %0, ptr noundef %1, i32 noundef %38, i32 noundef 4, i32 noundef %54, ptr noundef null, ptr noundef nonnull @.str.726)
  %56 = load i32, ptr @hf_nan_attr_availability_entry_entries_channel_op_class, align 4
  %57 = tail call ptr @proto_tree_add_item(ptr noundef %55, i32 noundef %56, ptr noundef %1, i32 noundef %38, i32 noundef 1, i32 noundef -2147483648)
  %58 = add i32 %2, 21
  %59 = load i32, ptr @hf_nan_attr_availability_entry_entries_channel_bitmap, align 4
  %60 = tail call ptr @proto_tree_add_item(ptr noundef %55, i32 noundef %59, ptr noundef %1, i32 noundef %58, i32 noundef 2, i32 noundef -2147483648)
  %61 = add i32 %2, 23
  %62 = load i32, ptr @hf_nan_attr_availability_entry_entries_primary_channel_bitmap, align 4
  %63 = tail call ptr @proto_tree_add_item(ptr noundef %55, i32 noundef %62, ptr noundef %1, i32 noundef %61, i32 noundef 1, i32 noundef -2147483648)
  %64 = add i32 %2, 24
  %65 = load i32, ptr @hf_nan_attr_availability_entry_entries_aux_channel_bitmap, align 4
  %66 = tail call ptr @proto_tree_add_item(ptr noundef %55, i32 noundef %65, ptr noundef %1, i32 noundef %64, i32 noundef 2, i32 noundef -2147483648)
  br label %67

67:                                               ; preds = %9, %53, %42, %39, %30, %7
  ret void
}